; Function Attrs: mustprogress uwtable
define hidden void @_ZNK10bit_vector7displayERSo(ptr noundef nonnull readonly align 8 captures(none) dereferenceable(16) %0, ptr noundef nonnull align 8 dereferenceable(8) %1) local_unnamed_addr #3 align 2 {
  %3 = load i32, ptr %0, align 8, !tbaa !11
  %.not6 = icmp eq i32 %3, 0
  br i1 %.not6, label %._crit_edge, label %.lr.ph

.lr.ph:                                           ; preds = %2
  %4 = getelementptr inbounds nuw i8, ptr %0, i64 8
  br label %5

5:                                                ; preds = %.lr.ph, %5
  %.07 = phi i32 [ %3, %.lr.ph ], [ %6, %5 ]
  %6 = add i32 %.07, -1
  %7 = load ptr, ptr %4, align 8, !tbaa !3
  %8 = lshr i32 %6, 5
  %9 = zext nneg i32 %8 to i64
  %10 = getelementptr inbounds nuw i32, ptr %7, i64 %9
  %11 = load i32, ptr %10, align 4, !tbaa !12
  %12 = and i32 %6, 31
  %13 = shl nuw i32 1, %12
  %14 = and i32 %11, %13
  %.not5 = icmp eq i32 %14, 0
  %.str.1..str = select i1 %.not5, ptr @.str.1, ptr @.str
  %15 = tail call noundef nonnull align 8 dereferenceable(8) ptr @_ZSt16__ostream_insertIcSt11char_traitsIcEERSt13basic_ostreamIT_T0_ES6_PKS3_l(ptr noundef nonnull align 8 dereferenceable(8) %1, ptr noundef nonnull %.str.1..str, i64 noundef 1)
  %.not = icmp eq i32 %6, 0
  br i1 %.not, label %._crit_edge, label %5, !llvm.loop !22

._crit_edge:                                      ; preds = %5, %2
  ret void
}